target datalayout = "e-m:e-p270:32:32-p271:32:32-p272:64:64-i64:64-i128:128-f80:128-n8:16:32:64-S128"
target triple = "x86_64-pc-linux-gnu"

@.str.993 = private unnamed_addr constant [6 x i8] c"-snp-\00", align 1

; Function Attrs: nounwind uwtable
define internal i32 @_get_iso8601_int(ptr noundef %0, i64 noundef %1, ptr noundef %2) #0 {
  %4 = alloca i32, align 4
  %5 = alloca ptr, align 8
  %6 = alloca i64, align 8
  %7 = alloca ptr, align 8
  %8 = alloca i64, align 8
  %9 = alloca i32, align 4
  %10 = alloca i32, align 4
  %11 = alloca i8, align 1
  store ptr %0, ptr %5, align 8, !tbaa !18
  store i64 %1, ptr %6, align 8, !tbaa !79
  store ptr %2, ptr %7, align 8, !tbaa !106
  call void @llvm.lifetime.start.p0(i64 8, ptr %8) #13
  call void @llvm.lifetime.start.p0(i64 4, ptr %9) #13
  store i32 0, ptr %9, align 4, !tbaa !21
  %12 = load i64, ptr %6, align 8, !tbaa !79
  %13 = icmp ult i64 %12, 1
  br i1 %13, label %17, label %14

14:                                               ; preds = %3
  %15 = load i64, ptr %6, align 8, !tbaa !79
  %16 = icmp ugt i64 %15, 4
  br i1 %16, label %17, label %18

17:                                               ; preds = %14, %3
  store i32 0, ptr %4, align 4
  store i32 1, ptr %10, align 4
  br label %52

18:                                               ; preds = %14
  store i64 0, ptr %8, align 8, !tbaa !79
  br label %19

19:                                               ; preds = %46, %18
  %20 = load i64, ptr %8, align 8, !tbaa !79
  %21 = load i64, ptr %6, align 8, !tbaa !79
  %22 = icmp ult i64 %20, %21
  br i1 %22, label %23, label %49

23:                                               ; preds = %19
  call void @llvm.lifetime.start.p0(i64 1, ptr %11) #13
  %24 = load ptr, ptr %5, align 8, !tbaa !18
  %25 = load i64, ptr %8, align 8, !tbaa !79
  %26 = getelementptr inbounds nuw i8, ptr %24, i64 %25
  %27 = load i8, ptr %26, align 1, !tbaa !19
  store i8 %27, ptr %11, align 1, !tbaa !19
  %28 = load i8, ptr %11, align 1, !tbaa !19
  %29 = sext i8 %28 to i32
  %30 = icmp slt i32 %29, 48
  br i1 %30, label %35, label %31

31:                                               ; preds = %23
  %32 = load i8, ptr %11, align 1, !tbaa !19
  %33 = sext i8 %32 to i32
  %34 = icmp sgt i32 %33, 57
  br i1 %34, label %35, label %36

35:                                               ; preds = %31, %23
  store i32 0, ptr %4, align 4
  store i32 1, ptr %10, align 4
  br label %43

36:                                               ; preds = %31
  %37 = load i32, ptr %9, align 4, !tbaa !21
  %38 = mul i32 %37, 10
  %39 = load i8, ptr %11, align 1, !tbaa !19
  %40 = sext i8 %39 to i32
  %41 = sub nsw i32 %40, 48
  %42 = add i32 %38, %41
  store i32 %42, ptr %9, align 4, !tbaa !21
  store i32 0, ptr %10, align 4
  br label %43

43:                                               ; preds = %36, %35
  call void @llvm.lifetime.end.p0(i64 1, ptr %11) #13
  %44 = load i32, ptr %10, align 4
  switch i32 %44, label %52 [
    i32 0, label %45
  ]

45:                                               ; preds = %43
  br label %46

46:                                               ; preds = %45
  %47 = load i64, ptr %8, align 8, !tbaa !79
  %48 = add i64 %47, 1
  store i64 %48, ptr %8, align 8, !tbaa !79
  br label %19

49:                                               ; preds = %19
  %50 = load i32, ptr %9, align 4, !tbaa !21
  %51 = load ptr, ptr %7, align 8, !tbaa !106
  store i32 %50, ptr %51, align 4, !tbaa !21
  store i32 1, ptr %4, align 4
  store i32 1, ptr %10, align 4
  br label %52

52:                                               ; preds = %49, %43, %17
  call void @llvm.lifetime.end.p0(i64 4, ptr %9) #13
  call void @llvm.lifetime.end.p0(i64 8, ptr %8) #13
  %53 = load i32, ptr %4, align 4
  ret i32 %53
}

; Function Attrs: nounwind uwtable
define internal i32 @_db_snap_sort(ptr noundef %0, ptr noundef %1, ptr noundef %2) #0 {
  %4 = alloca i32, align 4
  %5 = alloca ptr, align 8
  %6 = alloca ptr, align 8
  %7 = alloca ptr, align 8
  %8 = alloca ptr, align 8
  %9 = alloca ptr, align 8
  %10 = alloca ptr, align 8
  %11 = alloca ptr, align 8
  %12 = alloca i32, align 4
  %13 = alloca i32, align 4
  %14 = alloca i32, align 4
  %15 = alloca i32, align 4
  %16 = alloca i32, align 4
  %17 = alloca i32, align 4
  %18 = alloca i32, align 4
  %19 = alloca ptr, align 8
  %20 = alloca ptr, align 8
  %21 = alloca i32, align 4
  store ptr %0, ptr %5, align 8, !tbaa !72
  store ptr %1, ptr %6, align 8, !tbaa !72
  store ptr %2, ptr %7, align 8, !tbaa !72
  call void @llvm.lifetime.start.p0(i64 8, ptr %8) #13
  %22 = load ptr, ptr %5, align 8, !tbaa !72
  store ptr %22, ptr %8, align 8, !tbaa !18
  call void @llvm.lifetime.start.p0(i64 8, ptr %9) #13
  %23 = load ptr, ptr %6, align 8, !tbaa !72
  store ptr %23, ptr %9, align 8, !tbaa !18
  call void @llvm.lifetime.start.p0(i64 8, ptr %10) #13
  %24 = load ptr, ptr %8, align 8, !tbaa !18
  %25 = call ptr @g_strrstr(ptr noundef %24, ptr noundef @.str.993)
  store ptr %25, ptr %10, align 8, !tbaa !18
  call void @llvm.lifetime.start.p0(i64 8, ptr %11) #13
  %26 = load ptr, ptr %9, align 8, !tbaa !18
  %27 = call ptr @g_strrstr(ptr noundef %26, ptr noundef @.str.993)
  store ptr %27, ptr %11, align 8, !tbaa !18
  %28 = load ptr, ptr %10, align 8, !tbaa !18
  %29 = icmp ne ptr %28, null
  br i1 %29, label %30, label %33

30:                                               ; preds = %3
  %31 = load ptr, ptr %11, align 8, !tbaa !18
  %32 = icmp ne ptr %31, null
  br i1 %32, label %34, label %33

33:                                               ; preds = %30, %3
  store i32 0, ptr %4, align 4
  store i32 1, ptr %12, align 4
  br label %124

34:                                               ; preds = %30
  %35 = load ptr, ptr %10, align 8, !tbaa !18
  %36 = getelementptr inbounds i8, ptr %35, i64 5
  store ptr %36, ptr %10, align 8, !tbaa !18
  %37 = load ptr, ptr %11, align 8, !tbaa !18
  %38 = getelementptr inbounds i8, ptr %37, i64 5
  store ptr %38, ptr %11, align 8, !tbaa !18
  call void @llvm.lifetime.start.p0(i64 4, ptr %13) #13
  call void @llvm.lifetime.start.p0(i64 4, ptr %14) #13
  call void @llvm.lifetime.start.p0(i64 4, ptr %15) #13
  call void @llvm.lifetime.start.p0(i64 4, ptr %16) #13
  call void @llvm.lifetime.start.p0(i64 4, ptr %17) #13
  call void @llvm.lifetime.start.p0(i64 4, ptr %18) #13
  %39 = load ptr, ptr %10, align 8, !tbaa !18
  %40 = call i32 @_get_iso8601_int(ptr noundef %39, i64 noundef 4, ptr noundef %13)
  %41 = icmp ne i32 %40, 0
  br i1 %41, label %42, label %67

42:                                               ; preds = %34
  %43 = load ptr, ptr %10, align 8, !tbaa !18
  %44 = getelementptr inbounds i8, ptr %43, i64 4
  %45 = call i32 @_get_iso8601_int(ptr noundef %44, i64 noundef 2, ptr noundef %14)
  %46 = icmp ne i32 %45, 0
  br i1 %46, label %47, label %67

47:                                               ; preds = %42
  %48 = load ptr, ptr %10, align 8, !tbaa !18
  %49 = getelementptr inbounds i8, ptr %48, i64 6
  %50 = call i32 @_get_iso8601_int(ptr noundef %49, i64 noundef 2, ptr noundef %15)
  %51 = icmp ne i32 %50, 0
  br i1 %51, label %52, label %67

52:                                               ; preds = %47
  %53 = load ptr, ptr %10, align 8, !tbaa !18
  %54 = getelementptr inbounds i8, ptr %53, i64 8
  %55 = call i32 @_get_iso8601_int(ptr noundef %54, i64 noundef 2, ptr noundef %16)
  %56 = icmp ne i32 %55, 0
  br i1 %56, label %57, label %67

57:                                               ; preds = %52
  %58 = load ptr, ptr %10, align 8, !tbaa !18
  %59 = getelementptr inbounds i8, ptr %58, i64 10
  %60 = call i32 @_get_iso8601_int(ptr noundef %59, i64 noundef 2, ptr noundef %17)
  %61 = icmp ne i32 %60, 0
  br i1 %61, label %62, label %67

62:                                               ; preds = %57
  %63 = load ptr, ptr %10, align 8, !tbaa !18
  %64 = getelementptr inbounds i8, ptr %63, i64 12
  %65 = call i32 @_get_iso8601_int(ptr noundef %64, i64 noundef 2, ptr noundef %18)
  %66 = icmp ne i32 %65, 0
  br i1 %66, label %68, label %67

67:                                               ; preds = %62, %57, %52, %47, %42, %34
  store i32 0, ptr %4, align 4
  store i32 1, ptr %12, align 4
  br label %123

68:                                               ; preds = %62
  call void @llvm.lifetime.start.p0(i64 8, ptr %19) #13
  %69 = load i32, ptr %13, align 4, !tbaa !21
  %70 = load i32, ptr %14, align 4, !tbaa !21
  %71 = load i32, ptr %15, align 4, !tbaa !21
  %72 = load i32, ptr %16, align 4, !tbaa !21
  %73 = load i32, ptr %17, align 4, !tbaa !21
  %74 = load i32, ptr %18, align 4, !tbaa !21
  %75 = sitofp i32 %74 to double
  %76 = call ptr @g_date_time_new_local(i32 noundef %69, i32 noundef %70, i32 noundef %71, i32 noundef %72, i32 noundef %73, double noundef %75)
  store ptr %76, ptr %19, align 8, !tbaa !83
  %77 = load ptr, ptr %11, align 8, !tbaa !18
  %78 = call i32 @_get_iso8601_int(ptr noundef %77, i64 noundef 4, ptr noundef %13)
  %79 = icmp ne i32 %78, 0
  br i1 %79, label %80, label %105

80:                                               ; preds = %68
  %81 = load ptr, ptr %11, align 8, !tbaa !18
  %82 = getelementptr inbounds i8, ptr %81, i64 4
  %83 = call i32 @_get_iso8601_int(ptr noundef %82, i64 noundef 2, ptr noundef %14)
  %84 = icmp ne i32 %83, 0
  br i1 %84, label %85, label %105

85:                                               ; preds = %80
  %86 = load ptr, ptr %11, align 8, !tbaa !18
  %87 = getelementptr inbounds i8, ptr %86, i64 6
  %88 = call i32 @_get_iso8601_int(ptr noundef %87, i64 noundef 2, ptr noundef %15)
  %89 = icmp ne i32 %88, 0
  br i1 %89, label %90, label %105

90:                                               ; preds = %85
  %91 = load ptr, ptr %11, align 8, !tbaa !18
  %92 = getelementptr inbounds i8, ptr %91, i64 8
  %93 = call i32 @_get_iso8601_int(ptr noundef %92, i64 noundef 2, ptr noundef %16)
  %94 = icmp ne i32 %93, 0
  br i1 %94, label %95, label %105

95:                                               ; preds = %90
  %96 = load ptr, ptr %11, align 8, !tbaa !18
  %97 = getelementptr inbounds i8, ptr %96, i64 10
  %98 = call i32 @_get_iso8601_int(ptr noundef %97, i64 noundef 2, ptr noundef %17)
  %99 = icmp ne i32 %98, 0
  br i1 %99, label %100, label %105

100:                                              ; preds = %95
  %101 = load ptr, ptr %11, align 8, !tbaa !18
  %102 = getelementptr inbounds i8, ptr %101, i64 12
  %103 = call i32 @_get_iso8601_int(ptr noundef %102, i64 noundef 2, ptr noundef %18)
  %104 = icmp ne i32 %103, 0
  br i1 %104, label %107, label %105

105:                                              ; preds = %100, %95, %90, %85, %80, %68
  %106 = load ptr, ptr %19, align 8, !tbaa !83
  call void @g_date_time_unref(ptr noundef %106)
  store i32 0, ptr %4, align 4
  store i32 1, ptr %12, align 4
  br label %122

107:                                              ; preds = %100
  call void @llvm.lifetime.start.p0(i64 8, ptr %20) #13
  %108 = load i32, ptr %13, align 4, !tbaa !21
  %109 = load i32, ptr %14, align 4, !tbaa !21
  %110 = load i32, ptr %15, align 4, !tbaa !21
  %111 = load i32, ptr %16, align 4, !tbaa !21
  %112 = load i32, ptr %17, align 4, !tbaa !21
  %113 = load i32, ptr %18, align 4, !tbaa !21
  %114 = sitofp i32 %113 to double
  %115 = call ptr @g_date_time_new_local(i32 noundef %108, i32 noundef %109, i32 noundef %110, i32 noundef %111, i32 noundef %112, double noundef %114)
  store ptr %115, ptr %20, align 8, !tbaa !83
  call void @llvm.lifetime.start.p0(i64 4, ptr %21) #13
  %116 = load ptr, ptr %19, align 8, !tbaa !83
  %117 = load ptr, ptr %20, align 8, !tbaa !83
  %118 = call i32 @g_date_time_compare(ptr noundef %116, ptr noundef %117)
  store i32 %118, ptr %21, align 4, !tbaa !21
  %119 = load ptr, ptr %19, align 8, !tbaa !83
  call void @g_date_time_unref(ptr noundef %119)
  %120 = load ptr, ptr %20, align 8, !tbaa !83
  call void @g_date_time_unref(ptr noundef %120)
  %121 = load i32, ptr %21, align 4, !tbaa !21
  store i32 %121, ptr %4, align 4
  store i32 1, ptr %12, align 4
  call void @llvm.lifetime.end.p0(i64 4, ptr %21) #13
  call void @llvm.lifetime.end.p0(i64 8, ptr %20) #13
  br label %122

122:                                              ; preds = %107, %105
  call void @llvm.lifetime.end.p0(i64 8, ptr %19) #13
  br label %123

123:                                              ; preds = %122, %67
  call void @llvm.lifetime.end.p0(i64 4, ptr %18) #13
  call void @llvm.lifetime.end.p0(i64 4, ptr %17) #13
  call void @llvm.lifetime.end.p0(i64 4, ptr %16) #13
  call void @llvm.lifetime.end.p0(i64 4, ptr %15) #13
  call void @llvm.lifetime.end.p0(i64 4, ptr %14) #13
  call void @llvm.lifetime.end.p0(i64 4, ptr %13) #13
  br label %124

124:                                              ; preds = %123, %33
  call void @llvm.lifetime.end.p0(i64 8, ptr %11) #13
  call void @llvm.lifetime.end.p0(i64 8, ptr %10) #13
  call void @llvm.lifetime.end.p0(i64 8, ptr %9) #13
  call void @llvm.lifetime.end.p0(i64 8, ptr %8) #13
  %125 = load i32, ptr %4, align 4
  ret i32 %125
}