; Function Attrs: nounwind uwtable
define internal i32 @_db_snap_sort(ptr noundef %0, ptr noundef %1, ptr readnone captures(none) %2) #0 {
  %4 = tail call ptr @g_strrstr(ptr noundef %0, ptr noundef nonnull @.str.993) #18
  %5 = tail call ptr @g_strrstr(ptr noundef %1, ptr noundef nonnull @.str.993) #18
  %6 = icmp ne ptr %4, null
  %7 = icmp ne ptr %5, null
  %or.cond = select i1 %6, i1 %7, i1 false
  br i1 %or.cond, label %8, label %_get_iso8601_int.exit.thread

8:                                                ; preds = %3
  %9 = getelementptr inbounds nuw i8, ptr %4, i64 5
  %10 = getelementptr inbounds nuw i8, ptr %5, i64 5
  br label %11

11:                                               ; preds = %15, %8
  %.01926.i = phi i32 [ 0, %8 ], [ %19, %15 ]
  %.02125.i = phi i64 [ 0, %8 ], [ %20, %15 ]
  %12 = getelementptr inbounds nuw i8, ptr %9, i64 %.02125.i
  %13 = load i8, ptr %12, align 1, !tbaa !16
  %14 = add i8 %13, -48
  %or.cond4.i = icmp ult i8 %14, 10
  br i1 %or.cond4.i, label %15, label %_get_iso8601_int.exit.thread

15:                                               ; preds = %11
  %16 = mul i32 %.01926.i, 10
  %17 = zext nneg i8 %13 to i32
  %18 = add i32 %16, -48
  %19 = add i32 %18, %17
  %20 = add nuw nsw i64 %.02125.i, 1
  %exitcond.not.i = icmp eq i64 %20, 4
  br i1 %exitcond.not.i, label %_get_iso8601_int.exit, label %11

_get_iso8601_int.exit:                            ; preds = %15
  %21 = getelementptr inbounds nuw i8, ptr %4, i64 9
  br label %22

22:                                               ; preds = %26, %_get_iso8601_int.exit
  %.01926.i40 = phi i32 [ 0, %_get_iso8601_int.exit ], [ %30, %26 ]
  %.02125.i41 = phi i64 [ 0, %_get_iso8601_int.exit ], [ %31, %26 ]
  %23 = getelementptr inbounds nuw i8, ptr %21, i64 %.02125.i41
  %24 = load i8, ptr %23, align 1, !tbaa !16
  %25 = add i8 %24, -48
  %or.cond4.i42 = icmp ult i8 %25, 10
  br i1 %or.cond4.i42, label %26, label %_get_iso8601_int.exit.thread

26:                                               ; preds = %22
  %27 = mul i32 %.01926.i40, 10
  %28 = zext nneg i8 %24 to i32
  %29 = add i32 %27, -48
  %30 = add i32 %29, %28
  %31 = add nuw nsw i64 %.02125.i41, 1
  %exitcond.not.i44 = icmp eq i64 %31, 2
  br i1 %exitcond.not.i44, label %_get_iso8601_int.exit45, label %22

_get_iso8601_int.exit45:                          ; preds = %26
  %32 = getelementptr inbounds nuw i8, ptr %4, i64 11
  br label %33

33:                                               ; preds = %37, %_get_iso8601_int.exit45
  %.01926.i46 = phi i32 [ 0, %_get_iso8601_int.exit45 ], [ %41, %37 ]
  %.02125.i47 = phi i64 [ 0, %_get_iso8601_int.exit45 ], [ %42, %37 ]
  %34 = getelementptr inbounds nuw i8, ptr %32, i64 %.02125.i47
  %35 = load i8, ptr %34, align 1, !tbaa !16
  %36 = add i8 %35, -48
  %or.cond4.i48 = icmp ult i8 %36, 10
  br i1 %or.cond4.i48, label %37, label %_get_iso8601_int.exit.thread

37:                                               ; preds = %33
  %38 = mul i32 %.01926.i46, 10
  %39 = zext nneg i8 %35 to i32
  %40 = add i32 %38, -48
  %41 = add i32 %40, %39
  %42 = add nuw nsw i64 %.02125.i47, 1
  %exitcond.not.i50 = icmp eq i64 %42, 2
  br i1 %exitcond.not.i50, label %_get_iso8601_int.exit51, label %33

_get_iso8601_int.exit51:                          ; preds = %37
  %43 = getelementptr inbounds nuw i8, ptr %4, i64 13
  br label %44

44:                                               ; preds = %48, %_get_iso8601_int.exit51
  %.01926.i52 = phi i32 [ 0, %_get_iso8601_int.exit51 ], [ %52, %48 ]
  %.02125.i53 = phi i64 [ 0, %_get_iso8601_int.exit51 ], [ %53, %48 ]
  %45 = getelementptr inbounds nuw i8, ptr %43, i64 %.02125.i53
  %46 = load i8, ptr %45, align 1, !tbaa !16
  %47 = add i8 %46, -48
  %or.cond4.i54 = icmp ult i8 %47, 10
  br i1 %or.cond4.i54, label %48, label %_get_iso8601_int.exit.thread

48:                                               ; preds = %44
  %49 = mul i32 %.01926.i52, 10
  %50 = zext nneg i8 %46 to i32
  %51 = add i32 %49, -48
  %52 = add i32 %51, %50
  %53 = add nuw nsw i64 %.02125.i53, 1
  %exitcond.not.i56 = icmp eq i64 %53, 2
  br i1 %exitcond.not.i56, label %_get_iso8601_int.exit57, label %44

_get_iso8601_int.exit57:                          ; preds = %48
  %54 = getelementptr inbounds nuw i8, ptr %4, i64 15
  br label %55

55:                                               ; preds = %59, %_get_iso8601_int.exit57
  %.01926.i58 = phi i32 [ 0, %_get_iso8601_int.exit57 ], [ %63, %59 ]
  %.02125.i59 = phi i64 [ 0, %_get_iso8601_int.exit57 ], [ %64, %59 ]
  %56 = getelementptr inbounds nuw i8, ptr %54, i64 %.02125.i59
  %57 = load i8, ptr %56, align 1, !tbaa !16
  %58 = add i8 %57, -48
  %or.cond4.i60 = icmp ult i8 %58, 10
  br i1 %or.cond4.i60, label %59, label %_get_iso8601_int.exit.thread

59:                                               ; preds = %55
  %60 = mul i32 %.01926.i58, 10
  %61 = zext nneg i8 %57 to i32
  %62 = add i32 %60, -48
  %63 = add i32 %62, %61
  %64 = add nuw nsw i64 %.02125.i59, 1
  %exitcond.not.i62 = icmp eq i64 %64, 2
  br i1 %exitcond.not.i62, label %_get_iso8601_int.exit63, label %55

_get_iso8601_int.exit63:                          ; preds = %59
  %65 = getelementptr inbounds nuw i8, ptr %4, i64 17
  br label %66

66:                                               ; preds = %70, %_get_iso8601_int.exit63
  %.01926.i64 = phi i32 [ 0, %_get_iso8601_int.exit63 ], [ %74, %70 ]
  %.02125.i65 = phi i64 [ 0, %_get_iso8601_int.exit63 ], [ %75, %70 ]
  %67 = getelementptr inbounds nuw i8, ptr %65, i64 %.02125.i65
  %68 = load i8, ptr %67, align 1, !tbaa !16
  %69 = add i8 %68, -48
  %or.cond4.i66 = icmp ult i8 %69, 10
  br i1 %or.cond4.i66, label %70, label %_get_iso8601_int.exit.thread

70:                                               ; preds = %66
  %71 = mul i32 %.01926.i64, 10
  %72 = zext nneg i8 %68 to i32
  %73 = add i32 %71, -48
  %74 = add i32 %73, %72
  %75 = add nuw nsw i64 %.02125.i65, 1
  %exitcond.not.i68 = icmp eq i64 %75, 2
  br i1 %exitcond.not.i68, label %_get_iso8601_int.exit69, label %66

_get_iso8601_int.exit69:                          ; preds = %70
  %76 = sitofp i32 %74 to double
  %77 = tail call ptr @g_date_time_new_local(i32 noundef %19, i32 noundef %30, i32 noundef %41, i32 noundef %52, i32 noundef %63, double noundef %76) #18
  br label %78

78:                                               ; preds = %82, %_get_iso8601_int.exit69
  %.01926.i70 = phi i32 [ 0, %_get_iso8601_int.exit69 ], [ %86, %82 ]
  %.02125.i71 = phi i64 [ 0, %_get_iso8601_int.exit69 ], [ %87, %82 ]
  %79 = getelementptr inbounds nuw i8, ptr %10, i64 %.02125.i71
  %80 = load i8, ptr %79, align 1, !tbaa !16
  %81 = add i8 %80, -48
  %or.cond4.i72 = icmp ult i8 %81, 10
  br i1 %or.cond4.i72, label %82, label %_get_iso8601_int.exit.thread.sink.split

82:                                               ; preds = %78
  %83 = mul i32 %.01926.i70, 10
  %84 = zext nneg i8 %80 to i32
  %85 = add i32 %83, -48
  %86 = add i32 %85, %84
  %87 = add nuw nsw i64 %.02125.i71, 1
  %exitcond.not.i74 = icmp eq i64 %87, 4
  br i1 %exitcond.not.i74, label %_get_iso8601_int.exit75, label %78

_get_iso8601_int.exit75:                          ; preds = %82
  %88 = getelementptr inbounds nuw i8, ptr %5, i64 9
  br label %89

89:                                               ; preds = %93, %_get_iso8601_int.exit75
  %.01926.i76 = phi i32 [ 0, %_get_iso8601_int.exit75 ], [ %97, %93 ]
  %.02125.i77 = phi i64 [ 0, %_get_iso8601_int.exit75 ], [ %98, %93 ]
  %90 = getelementptr inbounds nuw i8, ptr %88, i64 %.02125.i77
  %91 = load i8, ptr %90, align 1, !tbaa !16
  %92 = add i8 %91, -48
  %or.cond4.i78 = icmp ult i8 %92, 10
  br i1 %or.cond4.i78, label %93, label %_get_iso8601_int.exit.thread.sink.split

93:                                               ; preds = %89
  %94 = mul i32 %.01926.i76, 10
  %95 = zext nneg i8 %91 to i32
  %96 = add i32 %94, -48
  %97 = add i32 %96, %95
  %98 = add nuw nsw i64 %.02125.i77, 1
  %exitcond.not.i80 = icmp eq i64 %98, 2
  br i1 %exitcond.not.i80, label %_get_iso8601_int.exit81, label %89

_get_iso8601_int.exit81:                          ; preds = %93
  %99 = getelementptr inbounds nuw i8, ptr %5, i64 11
  br label %100

100:                                              ; preds = %104, %_get_iso8601_int.exit81
  %.01926.i82 = phi i32 [ 0, %_get_iso8601_int.exit81 ], [ %108, %104 ]
  %.02125.i83 = phi i64 [ 0, %_get_iso8601_int.exit81 ], [ %109, %104 ]
  %101 = getelementptr inbounds nuw i8, ptr %99, i64 %.02125.i83
  %102 = load i8, ptr %101, align 1, !tbaa !16
  %103 = add i8 %102, -48
  %or.cond4.i84 = icmp ult i8 %103, 10
  br i1 %or.cond4.i84, label %104, label %_get_iso8601_int.exit.thread.sink.split

104:                                              ; preds = %100
  %105 = mul i32 %.01926.i82, 10
  %106 = zext nneg i8 %102 to i32
  %107 = add i32 %105, -48
  %108 = add i32 %107, %106
  %109 = add nuw nsw i64 %.02125.i83, 1
  %exitcond.not.i86 = icmp eq i64 %109, 2
  br i1 %exitcond.not.i86, label %_get_iso8601_int.exit87, label %100

_get_iso8601_int.exit87:                          ; preds = %104
  %110 = getelementptr inbounds nuw i8, ptr %5, i64 13
  br label %111

111:                                              ; preds = %115, %_get_iso8601_int.exit87
  %.01926.i88 = phi i32 [ 0, %_get_iso8601_int.exit87 ], [ %119, %115 ]
  %.02125.i89 = phi i64 [ 0, %_get_iso8601_int.exit87 ], [ %120, %115 ]
  %112 = getelementptr inbounds nuw i8, ptr %110, i64 %.02125.i89
  %113 = load i8, ptr %112, align 1, !tbaa !16
  %114 = add i8 %113, -48
  %or.cond4.i90 = icmp ult i8 %114, 10
  br i1 %or.cond4.i90, label %115, label %_get_iso8601_int.exit.thread.sink.split

115:                                              ; preds = %111
  %116 = mul i32 %.01926.i88, 10
  %117 = zext nneg i8 %113 to i32
  %118 = add i32 %116, -48
  %119 = add i32 %118, %117
  %120 = add nuw nsw i64 %.02125.i89, 1
  %exitcond.not.i92 = icmp eq i64 %120, 2
  br i1 %exitcond.not.i92, label %_get_iso8601_int.exit93, label %111

_get_iso8601_int.exit93:                          ; preds = %115
  %121 = getelementptr inbounds nuw i8, ptr %5, i64 15
  br label %122

122:                                              ; preds = %126, %_get_iso8601_int.exit93
  %.01926.i94 = phi i32 [ 0, %_get_iso8601_int.exit93 ], [ %130, %126 ]
  %.02125.i95 = phi i64 [ 0, %_get_iso8601_int.exit93 ], [ %131, %126 ]
  %123 = getelementptr inbounds nuw i8, ptr %121, i64 %.02125.i95
  %124 = load i8, ptr %123, align 1, !tbaa !16
  %125 = add i8 %124, -48
  %or.cond4.i96 = icmp ult i8 %125, 10
  br i1 %or.cond4.i96, label %126, label %_get_iso8601_int.exit.thread.sink.split

126:                                              ; preds = %122
  %127 = mul i32 %.01926.i94, 10
  %128 = zext nneg i8 %124 to i32
  %129 = add i32 %127, -48
  %130 = add i32 %129, %128
  %131 = add nuw nsw i64 %.02125.i95, 1
  %exitcond.not.i98 = icmp eq i64 %131, 2
  br i1 %exitcond.not.i98, label %_get_iso8601_int.exit99, label %122

_get_iso8601_int.exit99:                          ; preds = %126
  %132 = getelementptr inbounds nuw i8, ptr %5, i64 17
  br label %133

133:                                              ; preds = %137, %_get_iso8601_int.exit99
  %.01926.i100 = phi i32 [ 0, %_get_iso8601_int.exit99 ], [ %141, %137 ]
  %.02125.i101 = phi i64 [ 0, %_get_iso8601_int.exit99 ], [ %142, %137 ]
  %134 = getelementptr inbounds nuw i8, ptr %132, i64 %.02125.i101
  %135 = load i8, ptr %134, align 1, !tbaa !16
  %136 = add i8 %135, -48
  %or.cond4.i102 = icmp ult i8 %136, 10
  br i1 %or.cond4.i102, label %137, label %_get_iso8601_int.exit.thread.sink.split

137:                                              ; preds = %133
  %138 = mul i32 %.01926.i100, 10
  %139 = zext nneg i8 %135 to i32
  %140 = add i32 %138, -48
  %141 = add i32 %140, %139
  %142 = add nuw nsw i64 %.02125.i101, 1
  %exitcond.not.i104 = icmp eq i64 %142, 2
  br i1 %exitcond.not.i104, label %_get_iso8601_int.exit105, label %133

_get_iso8601_int.exit105:                         ; preds = %137
  %143 = sitofp i32 %141 to double
  %144 = tail call ptr @g_date_time_new_local(i32 noundef %86, i32 noundef %97, i32 noundef %108, i32 noundef %119, i32 noundef %130, double noundef %143) #18
  %145 = tail call i32 @g_date_time_compare(ptr noundef %77, ptr noundef %144) #18
  tail call void @g_date_time_unref(ptr noundef %77) #18
  br label %_get_iso8601_int.exit.thread.sink.split

_get_iso8601_int.exit.thread.sink.split:          ; preds = %78, %89, %100, %111, %122, %133, %_get_iso8601_int.exit105
  %.sink = phi ptr [ %144, %_get_iso8601_int.exit105 ], [ %77, %133 ], [ %77, %122 ], [ %77, %111 ], [ %77, %100 ], [ %77, %89 ], [ %77, %78 ]
  %.0.ph = phi i32 [ %145, %_get_iso8601_int.exit105 ], [ 0, %133 ], [ 0, %122 ], [ 0, %111 ], [ 0, %100 ], [ 0, %89 ], [ 0, %78 ]
  tail call void @g_date_time_unref(ptr noundef %.sink) #18
  br label %_get_iso8601_int.exit.thread

_get_iso8601_int.exit.thread:                     ; preds = %11, %22, %33, %44, %55, %66, %_get_iso8601_int.exit.thread.sink.split, %3
  %.0 = phi i32 [ 0, %3 ], [ %.0.ph, %_get_iso8601_int.exit.thread.sink.split ], [ 0, %66 ], [ 0, %55 ], [ 0, %44 ], [ 0, %33 ], [ 0, %22 ], [ 0, %11 ]
  ret i32 %.0
}